; Function Attrs: mustprogress uwtable
define internal void @_ZNK3ade7details8Metadata14MetadataHolderIN12_GLOBAL__N_123StreamingCreateFunctionEE5cloneEv(ptr dead_on_unwind noalias nocapture writable writeonly sret(%"class.std::unique_ptr.197") align 8 %0, ptr noundef nonnull align 8 dereferenceable(40) %1) unnamed_addr #3 align 2 personality ptr @__gxx_personality_v0 {
  %3 = tail call noalias noundef nonnull dereferenceable(40) ptr @_Znwm(i64 noundef 40) #26
  store ptr getelementptr inbounds inrange(-16, 24) (i8, ptr @_ZTVN3ade7details8Metadata14MetadataHolderIN12_GLOBAL__N_123StreamingCreateFunctionEEE, i64 16), ptr %3, align 8
  %4 = getelementptr inbounds i8, ptr %3, i64 8
  %5 = getelementptr inbounds i8, ptr %3, i64 24
  %6 = getelementptr inbounds i8, ptr %1, i64 24
  tail call void @llvm.memset.p0.i64(ptr noundef nonnull align 8 dereferenceable(32) %4, i8 0, i64 32, i1 false)
  %7 = load ptr, ptr %6, align 8
  %.not.i.i.not.i.i.i = icmp eq ptr %7, null
  br i1 %.not.i.i.not.i.i.i, label %_ZN3ade7details8Metadata14MetadataHolderIN12_GLOBAL__N_123StreamingCreateFunctionEEC2ERKS5_.exit, label %8

8:                                                ; preds = %2
  %9 = getelementptr inbounds i8, ptr %1, i64 8
  %10 = invoke noundef zeroext i1 %7(ptr noundef nonnull align 8 dereferenceable(16) %4, ptr noundef nonnull align 8 dereferenceable(16) %9, i32 noundef 2)
          to label %11 unwind label %13

11:                                               ; preds = %8
  %12 = load <2 x ptr>, ptr %6, align 8
  store <2 x ptr> %12, ptr %5, align 8
  br label %_ZN3ade7details8Metadata14MetadataHolderIN12_GLOBAL__N_123StreamingCreateFunctionEEC2ERKS5_.exit

13:                                               ; preds = %8
  %14 = landingpad { ptr, i32 }
          cleanup
  %15 = load ptr, ptr %5, align 8
  %.not.i.i.i.i = icmp eq ptr %15, null
  br i1 %.not.i.i.i.i, label %.body, label %16

16:                                               ; preds = %13
  %17 = invoke noundef zeroext i1 %15(ptr noundef nonnull align 8 dereferenceable(16) %4, ptr noundef nonnull align 8 dereferenceable(16) %4, i32 noundef 3)
          to label %.body unwind label %18

18:                                               ; preds = %16
  %19 = landingpad { ptr, i32 }
          catch ptr null
  %20 = extractvalue { ptr, i32 } %19, 0
  tail call void @__clang_call_terminate(ptr %20) #28
  unreachable

_ZN3ade7details8Metadata14MetadataHolderIN12_GLOBAL__N_123StreamingCreateFunctionEEC2ERKS5_.exit: ; preds = %11, %2
  store ptr %3, ptr %0, align 8
  ret void

.body:                                            ; preds = %13, %16
  tail call void @_ZdlPv(ptr noundef nonnull %3) #29
  resume { ptr, i32 } %14
}